target datalayout = "e-m:e-p270:32:32-p271:32:32-p272:64:64-i64:64-i128:128-f80:128-n8:16:32:64-S128"
target triple = "x86_64-pc-linux-gnu"

%struct.Vec_Int_t_ = type { i32, i32, ptr }

@.str.1 = private unnamed_addr constant [25 x i8] c"0123456789ABCDEF{abcdef}\00", align 1

; Function Attrs: inlinehint nounwind uwtable
define internal void @Vec_IntFree(ptr noundef %0) #3 {
  %2 = alloca ptr, align 8
  store ptr %0, ptr %2, align 8, !tbaa !26
  %3 = load ptr, ptr %2, align 8, !tbaa !26
  %4 = getelementptr inbounds nuw %struct.Vec_Int_t_, ptr %3, i32 0, i32 2
  %5 = load ptr, ptr %4, align 8, !tbaa !33
  %6 = icmp ne ptr %5, null
  br i1 %6, label %7, label %13

7:                                                ; preds = %1
  %8 = load ptr, ptr %2, align 8, !tbaa !26
  %9 = getelementptr inbounds nuw %struct.Vec_Int_t_, ptr %8, i32 0, i32 2
  %10 = load ptr, ptr %9, align 8, !tbaa !33
  call void @free(ptr noundef %10) #7
  %11 = load ptr, ptr %2, align 8, !tbaa !26
  %12 = getelementptr inbounds nuw %struct.Vec_Int_t_, ptr %11, i32 0, i32 2
  store ptr null, ptr %12, align 8, !tbaa !33
  br label %14

13:                                               ; preds = %1
  br label %14

14:                                               ; preds = %13, %7
  %15 = load ptr, ptr %2, align 8, !tbaa !26
  %16 = icmp ne ptr %15, null
  br i1 %16, label %17, label %19

17:                                               ; preds = %14
  %18 = load ptr, ptr %2, align 8, !tbaa !26
  call void @free(ptr noundef %18) #7
  store ptr null, ptr %2, align 8, !tbaa !26
  br label %20

19:                                               ; preds = %14
  br label %20

20:                                               ; preds = %19, %17
  ret void
}

; Function Attrs: nounwind uwtable
define i32 @If_ManSatCheckXYall(ptr noundef %0, i32 noundef %1, ptr noundef %2, i32 noundef %3, ptr noundef %4) #0 {
  %6 = alloca ptr, align 8
  %7 = alloca i32, align 4
  %8 = alloca ptr, align 8
  %9 = alloca i32, align 4
  %10 = alloca ptr, align 8
  %11 = alloca i32, align 4
  store ptr %0, ptr %6, align 8, !tbaa !13
  store i32 %1, ptr %7, align 4, !tbaa !3
  store ptr %2, ptr %8, align 8, !tbaa !22
  store i32 %3, ptr %9, align 4, !tbaa !3
  store ptr %4, ptr %10, align 8, !tbaa !26
  call void @llvm.lifetime.start.p0(i64 4, ptr %11) #7
  %12 = load ptr, ptr %6, align 8, !tbaa !13
  %13 = load i32, ptr %7, align 4, !tbaa !3
  %14 = load ptr, ptr %8, align 8, !tbaa !22
  %15 = load i32, ptr %9, align 4, !tbaa !3
  %16 = load ptr, ptr %10, align 8, !tbaa !26
  %17 = call i32 @If_ManSatCheckXYall_int(ptr noundef %12, i32 noundef %13, ptr noundef %14, i32 noundef %15, ptr noundef %16)
  store i32 %17, ptr %11, align 4, !tbaa !3
  %18 = load i32, ptr %11, align 4, !tbaa !3
  call void @llvm.lifetime.end.p0(i64 4, ptr %11) #7
  ret i32 %18
}

; Function Attrs: inlinehint nounwind uwtable
define internal ptr @Vec_IntAlloc(i32 noundef %0) #3 {
  %2 = alloca i32, align 4
  %3 = alloca ptr, align 8
  store i32 %0, ptr %2, align 4, !tbaa !3
  call void @llvm.lifetime.start.p0(i64 8, ptr %3) #7
  %4 = call noalias ptr @malloc(i64 noundef 16) #8
  store ptr %4, ptr %3, align 8, !tbaa !26
  %5 = load i32, ptr %2, align 4, !tbaa !3
  %6 = icmp sgt i32 %5, 0
  br i1 %6, label %7, label %11

7:                                                ; preds = %1
  %8 = load i32, ptr %2, align 4, !tbaa !3
  %9 = icmp slt i32 %8, 16
  br i1 %9, label %10, label %11

10:                                               ; preds = %7
  store i32 16, ptr %2, align 4, !tbaa !3
  br label %11

11:                                               ; preds = %10, %7, %1
  %12 = load ptr, ptr %3, align 8, !tbaa !26
  %13 = getelementptr inbounds nuw %struct.Vec_Int_t_, ptr %12, i32 0, i32 1
  store i32 0, ptr %13, align 4, !tbaa !36
  %14 = load i32, ptr %2, align 4, !tbaa !3
  %15 = load ptr, ptr %3, align 8, !tbaa !26
  %16 = getelementptr inbounds nuw %struct.Vec_Int_t_, ptr %15, i32 0, i32 0
  store i32 %14, ptr %16, align 8, !tbaa !140
  %17 = load ptr, ptr %3, align 8, !tbaa !26
  %18 = getelementptr inbounds nuw %struct.Vec_Int_t_, ptr %17, i32 0, i32 0
  %19 = load i32, ptr %18, align 8, !tbaa !140
  %20 = icmp ne i32 %19, 0
  br i1 %20, label %21, label %28

21:                                               ; preds = %11
  %22 = load ptr, ptr %3, align 8, !tbaa !26
  %23 = getelementptr inbounds nuw %struct.Vec_Int_t_, ptr %22, i32 0, i32 0
  %24 = load i32, ptr %23, align 8, !tbaa !140
  %25 = sext i32 %24 to i64
  %26 = mul i64 4, %25
  %27 = call noalias ptr @malloc(i64 noundef %26) #8
  br label %29

28:                                               ; preds = %11
  br label %29

29:                                               ; preds = %28, %21
  %30 = phi ptr [ %27, %21 ], [ null, %28 ]
  %31 = load ptr, ptr %3, align 8, !tbaa !26
  %32 = getelementptr inbounds nuw %struct.Vec_Int_t_, ptr %31, i32 0, i32 2
  store ptr %30, ptr %32, align 8, !tbaa !33
  %33 = load ptr, ptr %3, align 8, !tbaa !26
  call void @llvm.lifetime.end.p0(i64 8, ptr %3) #7
  ret ptr %33
}

; Function Attrs: nounwind uwtable
define void @If_ManSatTest3() #0 {
  %1 = alloca i32, align 4
  %2 = alloca i32, align 4
  %3 = alloca ptr, align 8
  %4 = alloca ptr, align 8
  %5 = alloca ptr, align 8
  %6 = alloca ptr, align 8
  %7 = alloca i32, align 4
  call void @llvm.lifetime.start.p0(i64 4, ptr %1) #7
  store i32 6, ptr %1, align 4, !tbaa !3
  call void @llvm.lifetime.start.p0(i64 4, ptr %2) #7
  store i32 4, ptr %2, align 4, !tbaa !3
  call void @llvm.lifetime.start.p0(i64 8, ptr %3) #7
  %8 = load i32, ptr %2, align 4, !tbaa !3
  %9 = call ptr @If_ManSatBuildXY(i32 noundef %8)
  store ptr %9, ptr %3, align 8, !tbaa !7
  call void @llvm.lifetime.start.p0(i64 8, ptr %4) #7
  store ptr @.str.1, ptr %4, align 8, !tbaa !139
  call void @llvm.lifetime.start.p0(i64 8, ptr %5) #7
  %10 = load ptr, ptr %4, align 8, !tbaa !139
  %11 = load i32, ptr %1, align 4, !tbaa !3
  %12 = call ptr @Dau_DsdToTruth(ptr noundef %10, i32 noundef %11)
  store ptr %12, ptr %5, align 8, !tbaa !22
  call void @llvm.lifetime.start.p0(i64 8, ptr %6) #7
  %13 = call ptr @Vec_IntAlloc(i32 noundef 100)
  store ptr %13, ptr %6, align 8, !tbaa !26
  call void @llvm.lifetime.start.p0(i64 4, ptr %7) #7
  store i32 93, ptr %7, align 4, !tbaa !3
  %14 = load ptr, ptr %3, align 8, !tbaa !7
  %15 = load i32, ptr %2, align 4, !tbaa !3
  %16 = load ptr, ptr %5, align 8, !tbaa !22
  %17 = load i32, ptr %1, align 4, !tbaa !3
  %18 = load ptr, ptr %6, align 8, !tbaa !26
  %19 = call i32 @If_ManSatCheckXYall(ptr noundef %14, i32 noundef %15, ptr noundef %16, i32 noundef %17, ptr noundef %18)
  store i32 %19, ptr %7, align 4, !tbaa !3
  %20 = load i32, ptr %7, align 4, !tbaa !3
  %21 = load i32, ptr %1, align 4, !tbaa !3
  call void @Dau_DecPrintSet(i32 noundef %20, i32 noundef %21, i32 noundef 1)
  %22 = load ptr, ptr %3, align 8, !tbaa !7
  call void @sat_solver_delete(ptr noundef %22)
  %23 = load ptr, ptr %6, align 8, !tbaa !26
  call void @Vec_IntFree(ptr noundef %23)
  call void @llvm.lifetime.end.p0(i64 4, ptr %7) #7
  call void @llvm.lifetime.end.p0(i64 8, ptr %6) #7
  call void @llvm.lifetime.end.p0(i64 8, ptr %5) #7
  call void @llvm.lifetime.end.p0(i64 8, ptr %4) #7
  call void @llvm.lifetime.end.p0(i64 8, ptr %3) #7
  call void @llvm.lifetime.end.p0(i64 4, ptr %2) #7
  call void @llvm.lifetime.end.p0(i64 4, ptr %1) #7
  ret void
}