; Function Attrs: nounwind uwtable
define void @If_ManSatTest3() local_unnamed_addr #0 {
  %1 = tail call ptr @If_ManSatBuildXY(i32 noundef 4)
  %2 = tail call ptr @Dau_DsdToTruth(ptr noundef nonnull @.str.1, i32 noundef 6) #10
  %3 = tail call noalias dereferenceable_or_null(16) ptr @malloc(i64 noundef 16) #12
  %4 = getelementptr inbounds nuw i8, ptr %3, i64 4
  store i32 0, ptr %4, align 4, !tbaa !23
  store i32 100, ptr %3, align 8, !tbaa !18
  %5 = tail call noalias dereferenceable_or_null(400) ptr @malloc(i64 noundef 400) #12
  %6 = getelementptr inbounds nuw i8, ptr %3, i64 8
  store ptr %5, ptr %6, align 8, !tbaa !22
  %7 = tail call i32 @If_ManSatCheckXYall_int(ptr noundef %1, i32 noundef 4, ptr noundef %2, i32 noundef 6, ptr noundef nonnull %3)
  tail call void @Dau_DecPrintSet(i32 noundef %7, i32 noundef 6, i32 noundef 1) #10
  tail call void @sat_solver_delete(ptr noundef %1) #10
  %8 = load ptr, ptr %6, align 8, !tbaa !22
  %.not.i = icmp eq ptr %8, null
  br i1 %.not.i, label %Vec_IntFree.exit, label %9

9:                                                ; preds = %0
  tail call void @free(ptr noundef nonnull %8) #10
  br label %Vec_IntFree.exit

Vec_IntFree.exit:                                 ; preds = %0, %9
  tail call void @free(ptr noundef nonnull %3) #10
  ret void
}